target datalayout = "e-m:e-p270:32:32-p271:32:32-p272:64:64-i64:64-i128:128-f80:128-n8:16:32:64-S128"
target triple = "x86_64-pc-linux-gnu"

%class.StackSlotAnalysisData = type { i32 }
%class.SimulatedOperandStack = type { %class.GrowableArray, i64 }
%class.GrowableArray = type { %class.GrowableArrayWithAllocator, %class.GrowableArrayMetadata }
%class.GrowableArrayWithAllocator = type { %class.GrowableArrayView }
%class.GrowableArrayView = type { %class.GrowableArrayBase, ptr }
%class.GrowableArrayBase = type { i32, i32 }
%class.GrowableArrayMetadata = type { i64 }

@type2size = external global [20 x i32], align 16

; Function Attrs: mustprogress nounwind uwtable
define linkonce_odr hidden noundef i32 @_ZN21CountLeadingZerosImplIiLm4EE4doitEi(i32 noundef %0) #1 comdat align 2 {
  %2 = alloca i32, align 4
  store i32 %0, ptr %2, align 4
  %3 = load i32, ptr %2, align 4
  %4 = call i32 @llvm.ctlz.i32(i32 %3, i1 true)
  ret i32 %4
}

; Function Attrs: mustprogress nounwind uwtable
define linkonce_odr hidden noundef i32 @_Z19count_leading_zerosIiEjT_(i32 noundef %0) #1 comdat {
  %2 = alloca i32, align 4
  store i32 %0, ptr %2, align 4
  %3 = load i32, ptr %2, align 4
  %4 = call noundef i32 @_ZN21CountLeadingZerosImplIiLm4EE4doitEi(i32 noundef %3)
  ret i32 %4
}

; Function Attrs: mustprogress nounwind uwtable
define linkonce_odr hidden noundef i32 @_Z5log2iIiTnNSt9enable_ifIXcvbsr3std11is_integralIT_EE5valueEiE4typeELi0EEiS1_(i32 noundef %0) #1 comdat {
  %2 = alloca i32, align 4
  %3 = alloca i32, align 4
  store i32 %0, ptr %2, align 4
  store i32 32, ptr %3, align 4
  %4 = load i32, ptr %2, align 4
  %5 = call noundef i32 @_Z19count_leading_zerosIiEjT_(i32 noundef %4)
  %6 = sub i32 32, %5
  %7 = sub i32 %6, 1
  ret i32 %7
}

; Function Attrs: mustprogress nounwind uwtable
define linkonce_odr hidden noundef zeroext i1 @_Z13is_power_of_2IiTnNSt9enable_ifIXcvbsr3std11is_integralIT_EE5valueEiE4typeELi0EEbS1_(i32 noundef %0) #1 comdat {
  %2 = alloca i32, align 4
  store i32 %0, ptr %2, align 4
  %3 = load i32, ptr %2, align 4
  %4 = icmp sgt i32 %3, 0
  br i1 %4, label %5, label %11

5:                                                ; preds = %1
  %6 = load i32, ptr %2, align 4
  %7 = load i32, ptr %2, align 4
  %8 = sub nsw i32 %7, 1
  %9 = and i32 %6, %8
  %10 = icmp eq i32 %9, 0
  br label %11

11:                                               ; preds = %5, %1
  %12 = phi i1 [ false, %1 ], [ %10, %5 ]
  ret i1 %12
}

; Function Attrs: mustprogress nounwind uwtable
define linkonce_odr hidden noundef i32 @_Z19round_up_power_of_2IiTnNSt9enable_ifIXcvbsr3std11is_integralIT_EE5valueEiE4typeELi0EES1_S1_(i32 noundef %0) #1 comdat {
  %2 = alloca i32, align 4
  %3 = alloca i32, align 4
  store i32 %0, ptr %3, align 4
  %4 = load i32, ptr %3, align 4
  %5 = call noundef zeroext i1 @_Z13is_power_of_2IiTnNSt9enable_ifIXcvbsr3std11is_integralIT_EE5valueEiE4typeELi0EEbS1_(i32 noundef %4)
  br i1 %5, label %6, label %8

6:                                                ; preds = %1
  %7 = load i32, ptr %3, align 4
  store i32 %7, ptr %2, align 4
  br label %13

8:                                                ; preds = %1
  %9 = load i32, ptr %3, align 4
  %10 = call noundef i32 @_Z5log2iIiTnNSt9enable_ifIXcvbsr3std11is_integralIT_EE5valueEiE4typeELi0EEiS1_(i32 noundef %9)
  %11 = add nsw i32 %10, 1
  %12 = shl i32 1, %11
  store i32 %12, ptr %2, align 4
  br label %13

13:                                               ; preds = %8, %6
  %14 = load i32, ptr %2, align 4
  ret i32 %14
}

; Function Attrs: mustprogress nounwind uwtable
define linkonce_odr hidden noundef i32 @_Z15next_power_of_2IiTnNSt9enable_ifIXcvbsr3std11is_integralIT_EE5valueEiE4typeELi0EES1_S1_(i32 noundef %0) #1 comdat {
  %2 = alloca i32, align 4
  store i32 %0, ptr %2, align 4
  %3 = load i32, ptr %2, align 4
  %4 = add nsw i32 %3, 1
  %5 = call noundef i32 @_Z19round_up_power_of_2IiTnNSt9enable_ifIXcvbsr3std11is_integralIT_EE5valueEiE4typeELi0EES1_S1_(i32 noundef %4)
  ret i32 %5
}

; Function Attrs: mustprogress nounwind uwtable
define linkonce_odr hidden void @_ZN26GrowableArrayWithAllocatorI21StackSlotAnalysisData13GrowableArrayIS0_EE4growEi(ptr noundef nonnull align 8 dereferenceable(16) %0, i32 noundef %1) #1 comdat align 2 {
  %3 = alloca ptr, align 8
  %4 = alloca i32, align 4
  store ptr %0, ptr %3, align 8
  store i32 %1, ptr %4, align 4
  %5 = load ptr, ptr %3, align 8
  %6 = load i32, ptr %4, align 4
  %7 = call noundef i32 @_Z15next_power_of_2IiTnNSt9enable_ifIXcvbsr3std11is_integralIT_EE5valueEiE4typeELi0EES1_S1_(i32 noundef %6)
  call void @_ZN26GrowableArrayWithAllocatorI21StackSlotAnalysisData13GrowableArrayIS0_EE9expand_toEi(ptr noundef nonnull align 8 dereferenceable(16) %5, i32 noundef %7)
  ret void
}

; Function Attrs: mustprogress nounwind uwtable
define linkonce_odr hidden noundef i32 @_ZN26GrowableArrayWithAllocatorI21StackSlotAnalysisData13GrowableArrayIS0_EE6appendERKS0_(ptr noundef nonnull align 8 dereferenceable(16) %0, ptr noundef nonnull align 4 dereferenceable(4) %1) #1 comdat align 2 {
  %3 = alloca ptr, align 8
  %4 = alloca ptr, align 8
  %5 = alloca i32, align 4
  store ptr %0, ptr %3, align 8
  store ptr %1, ptr %4, align 8
  %6 = load ptr, ptr %3, align 8
  %7 = getelementptr inbounds %class.GrowableArrayBase, ptr %6, i32 0, i32 0
  %8 = load i32, ptr %7, align 8
  %9 = getelementptr inbounds %class.GrowableArrayBase, ptr %6, i32 0, i32 1
  %10 = load i32, ptr %9, align 4
  %11 = icmp eq i32 %8, %10
  br i1 %11, label %12, label %15

12:                                               ; preds = %2
  %13 = getelementptr inbounds %class.GrowableArrayBase, ptr %6, i32 0, i32 0
  %14 = load i32, ptr %13, align 8
  call void @_ZN26GrowableArrayWithAllocatorI21StackSlotAnalysisData13GrowableArrayIS0_EE4growEi(ptr noundef nonnull align 8 dereferenceable(16) %6, i32 noundef %14)
  br label %15

15:                                               ; preds = %12, %2
  %16 = getelementptr inbounds %class.GrowableArrayBase, ptr %6, i32 0, i32 0
  %17 = load i32, ptr %16, align 8
  %18 = add nsw i32 %17, 1
  store i32 %18, ptr %16, align 8
  store i32 %17, ptr %5, align 4
  %19 = load ptr, ptr %4, align 8
  %20 = getelementptr inbounds %class.GrowableArrayView, ptr %6, i32 0, i32 1
  %21 = load ptr, ptr %20, align 8
  %22 = load i32, ptr %5, align 4
  %23 = sext i32 %22 to i64
  %24 = getelementptr inbounds %class.StackSlotAnalysisData, ptr %21, i64 %23
  call void @llvm.memcpy.p0.p0.i64(ptr align 4 %24, ptr align 4 %19, i64 4, i1 false)
  %25 = load i32, ptr %5, align 4
  ret i32 %25
}

; Function Attrs: mustprogress nounwind uwtable
define linkonce_odr hidden void @_ZN26GrowableArrayWithAllocatorI21StackSlotAnalysisData13GrowableArrayIS0_EE4pushERKS0_(ptr noundef nonnull align 8 dereferenceable(16) %0, ptr noundef nonnull align 4 dereferenceable(4) %1) #1 comdat align 2 {
  %3 = alloca ptr, align 8
  %4 = alloca ptr, align 8
  store ptr %0, ptr %3, align 8
  store ptr %1, ptr %4, align 8
  %5 = load ptr, ptr %3, align 8
  %6 = load ptr, ptr %4, align 8
  %7 = call noundef i32 @_ZN26GrowableArrayWithAllocatorI21StackSlotAnalysisData13GrowableArrayIS0_EE6appendERKS0_(ptr noundef nonnull align 8 dereferenceable(16) %5, ptr noundef nonnull align 4 dereferenceable(4) %6)
  ret void
}

; Function Attrs: mustprogress nounwind uwtable
define hidden void @_ZN21SimulatedOperandStack8push_rawE21StackSlotAnalysisData(ptr noundef nonnull align 8 dereferenceable(32) %0, i32 %1) #1 align 2 {
  %3 = alloca %class.StackSlotAnalysisData, align 4
  %4 = alloca ptr, align 8
  %5 = getelementptr inbounds %class.StackSlotAnalysisData, ptr %3, i32 0, i32 0
  store i32 %1, ptr %5, align 4
  store ptr %0, ptr %4, align 8
  %6 = load ptr, ptr %4, align 8
  %7 = call noundef zeroext i8 @_ZN21StackSlotAnalysisData8get_typeEv(ptr noundef nonnull align 4 dereferenceable(4) %3)
  %8 = zext i8 %7 to i32
  %9 = icmp eq i32 %8, 14
  br i1 %9, label %10, label %11

10:                                               ; preds = %2
  br label %13

11:                                               ; preds = %2
  %12 = getelementptr inbounds %class.SimulatedOperandStack, ptr %6, i32 0, i32 0
  call void @_ZN26GrowableArrayWithAllocatorI21StackSlotAnalysisData13GrowableArrayIS0_EE4pushERKS0_(ptr noundef nonnull align 8 dereferenceable(16) %12, ptr noundef nonnull align 4 dereferenceable(4) %3)
  br label %13

13:                                               ; preds = %11, %10
  ret void
}

; Function Attrs: mustprogress nounwind uwtable
define hidden noundef zeroext i8 @_ZN21StackSlotAnalysisData8get_typeEv(ptr noundef nonnull align 4 dereferenceable(4) %0) #1 align 2 {
  %2 = alloca ptr, align 8
  store ptr %0, ptr %2, align 8
  %3 = load ptr, ptr %2, align 8
  %4 = load i32, ptr %3, align 4
  %5 = lshr i32 %4, 17
  %6 = trunc i32 %5 to i8
  ret i8 %6
}

; Function Attrs: mustprogress nounwind uwtable
define hidden void @_ZN21SimulatedOperandStack4pushE21StackSlotAnalysisData(ptr noundef nonnull align 8 dereferenceable(32) %0, i32 %1) #1 align 2 {
  %3 = alloca %class.StackSlotAnalysisData, align 4
  %4 = alloca ptr, align 8
  %5 = alloca %class.StackSlotAnalysisData, align 4
  %6 = alloca %class.StackSlotAnalysisData, align 4
  %7 = alloca %class.StackSlotAnalysisData, align 4
  %8 = getelementptr inbounds %class.StackSlotAnalysisData, ptr %3, i32 0, i32 0
  store i32 %1, ptr %8, align 4
  store ptr %0, ptr %4, align 8
  %9 = load ptr, ptr %4, align 8
  %10 = call noundef zeroext i8 @_ZN21StackSlotAnalysisData8get_typeEv(ptr noundef nonnull align 4 dereferenceable(4) %3)
  %11 = zext i8 %10 to i64
  %12 = getelementptr inbounds [20 x i32], ptr @type2size, i64 0, i64 %11
  %13 = load i32, ptr %12, align 4
  %14 = icmp eq i32 %13, 2
  br i1 %14, label %15, label %20

15:                                               ; preds = %2
  call void @llvm.memcpy.p0.p0.i64(ptr align 4 %5, ptr align 4 %3, i64 4, i1 false)
  %16 = getelementptr inbounds %class.StackSlotAnalysisData, ptr %5, i32 0, i32 0
  %17 = load i32, ptr %16, align 4
  call void @_ZN21SimulatedOperandStack8push_rawE21StackSlotAnalysisData(ptr noundef nonnull align 8 dereferenceable(32) %9, i32 %17)
  call void @llvm.memcpy.p0.p0.i64(ptr align 4 %6, ptr align 4 %3, i64 4, i1 false)
  %18 = getelementptr inbounds %class.StackSlotAnalysisData, ptr %6, i32 0, i32 0
  %19 = load i32, ptr %18, align 4
  call void @_ZN21SimulatedOperandStack8push_rawE21StackSlotAnalysisData(ptr noundef nonnull align 8 dereferenceable(32) %9, i32 %19)
  br label %23

20:                                               ; preds = %2
  call void @llvm.memcpy.p0.p0.i64(ptr align 4 %7, ptr align 4 %3, i64 4, i1 false)
  %21 = getelementptr inbounds %class.StackSlotAnalysisData, ptr %7, i32 0, i32 0
  %22 = load i32, ptr %21, align 4
  call void @_ZN21SimulatedOperandStack8push_rawE21StackSlotAnalysisData(ptr noundef nonnull align 8 dereferenceable(32) %9, i32 %22)
  br label %23

23:                                               ; preds = %20, %15
  ret void
}