; Function Attrs: mustprogress nounwind uwtable
define hidden void @_ZN21SimulatedOperandStack4pushE21StackSlotAnalysisData(ptr noundef nonnull align 8 dereferenceable(32) %0, i32 %1) local_unnamed_addr #2 align 2 {
  %3 = lshr i32 %1, 17
  %4 = and i32 %3, 255
  %5 = zext nneg i32 %4 to i64
  %6 = getelementptr inbounds [20 x i32], ptr @type2size, i64 0, i64 %5
  %7 = load i32, ptr %6, align 4
  %8 = icmp eq i32 %7, 2
  %9 = and i32 %1, 33423360
  %10 = icmp eq i32 %9, 1835008
  br i1 %8, label %11, label %49

11:                                               ; preds = %2
  br i1 %10, label %_ZN21SimulatedOperandStack8push_rawE21StackSlotAnalysisData.exit6, label %12

12:                                               ; preds = %11
  %13 = load i32, ptr %0, align 8
  %14 = getelementptr inbounds i8, ptr %0, i64 4
  %15 = load i32, ptr %14, align 4
  %16 = icmp eq i32 %13, %15
  br i1 %16, label %17, label %27

17:                                               ; preds = %12
  %18 = add nsw i32 %13, 1
  %19 = icmp sgt i32 %13, -1
  %20 = xor i32 %13, -2147483648
  %21 = and i32 %20, %18
  %22 = icmp eq i32 %21, 0
  %23 = and i1 %19, %22
  %24 = tail call range(i32 0, 33) i32 @llvm.ctlz.i32(i32 %18, i1 true)
  %25 = sub nuw nsw i32 32, %24
  %26 = shl nuw i32 1, %25
  %.0.i.i.i.i.i.i = select i1 %23, i32 %18, i32 %26
  tail call void @_ZN26GrowableArrayWithAllocatorI21StackSlotAnalysisData13GrowableArrayIS0_EE9expand_toEi(ptr noundef nonnull align 8 dereferenceable(16) %0, i32 noundef %.0.i.i.i.i.i.i)
  %.pre.i.i.i = load i32, ptr %0, align 8
  br label %27

27:                                               ; preds = %17, %12
  %28 = phi i32 [ %.pre.i.i.i, %17 ], [ %13, %12 ]
  %29 = add nsw i32 %28, 1
  store i32 %29, ptr %0, align 8
  %30 = getelementptr inbounds i8, ptr %0, i64 8
  %31 = load ptr, ptr %30, align 8
  %32 = sext i32 %28 to i64
  %33 = getelementptr inbounds %class.StackSlotAnalysisData, ptr %31, i64 %32
  store i32 %1, ptr %33, align 4
  %34 = load i32, ptr %0, align 8
  %35 = load i32, ptr %14, align 4
  %36 = icmp eq i32 %34, %35
  br i1 %36, label %37, label %_ZN26GrowableArrayWithAllocatorI21StackSlotAnalysisData13GrowableArrayIS0_EE4pushERKS0_.exit.i3

37:                                               ; preds = %27
  %38 = add nsw i32 %34, 1
  %39 = icmp sgt i32 %34, -1
  %40 = xor i32 %34, -2147483648
  %41 = and i32 %40, %38
  %42 = icmp eq i32 %41, 0
  %43 = and i1 %39, %42
  %44 = tail call range(i32 0, 33) i32 @llvm.ctlz.i32(i32 %38, i1 true)
  %45 = sub nuw nsw i32 32, %44
  %46 = shl nuw i32 1, %45
  %.0.i.i.i.i.i.i4 = select i1 %43, i32 %38, i32 %46
  tail call void @_ZN26GrowableArrayWithAllocatorI21StackSlotAnalysisData13GrowableArrayIS0_EE9expand_toEi(ptr noundef nonnull align 8 dereferenceable(16) %0, i32 noundef %.0.i.i.i.i.i.i4)
  %.pre.i.i.i5 = load i32, ptr %0, align 8
  br label %_ZN26GrowableArrayWithAllocatorI21StackSlotAnalysisData13GrowableArrayIS0_EE4pushERKS0_.exit.i3

_ZN26GrowableArrayWithAllocatorI21StackSlotAnalysisData13GrowableArrayIS0_EE4pushERKS0_.exit.i3: ; preds = %37, %27
  %47 = phi i32 [ %.pre.i.i.i5, %37 ], [ %34, %27 ]
  %48 = add nsw i32 %47, 1
  store i32 %48, ptr %0, align 8
  br label %_ZN21SimulatedOperandStack8push_rawE21StackSlotAnalysisData.exit6.sink.split

49:                                               ; preds = %2
  br i1 %10, label %_ZN21SimulatedOperandStack8push_rawE21StackSlotAnalysisData.exit6, label %50

50:                                               ; preds = %49
  %51 = load i32, ptr %0, align 8
  %52 = getelementptr inbounds i8, ptr %0, i64 4
  %53 = load i32, ptr %52, align 4
  %54 = icmp eq i32 %51, %53
  br i1 %54, label %55, label %_ZN26GrowableArrayWithAllocatorI21StackSlotAnalysisData13GrowableArrayIS0_EE4pushERKS0_.exit.i7

55:                                               ; preds = %50
  %56 = add nsw i32 %51, 1
  %57 = icmp sgt i32 %51, -1
  %58 = xor i32 %51, -2147483648
  %59 = and i32 %58, %56
  %60 = icmp eq i32 %59, 0
  %61 = and i1 %57, %60
  %62 = tail call range(i32 0, 33) i32 @llvm.ctlz.i32(i32 %56, i1 true)
  %63 = sub nuw nsw i32 32, %62
  %64 = shl nuw i32 1, %63
  %.0.i.i.i.i.i.i8 = select i1 %61, i32 %56, i32 %64
  tail call void @_ZN26GrowableArrayWithAllocatorI21StackSlotAnalysisData13GrowableArrayIS0_EE9expand_toEi(ptr noundef nonnull align 8 dereferenceable(16) %0, i32 noundef %.0.i.i.i.i.i.i8)
  %.pre.i.i.i9 = load i32, ptr %0, align 8
  br label %_ZN26GrowableArrayWithAllocatorI21StackSlotAnalysisData13GrowableArrayIS0_EE4pushERKS0_.exit.i7

_ZN26GrowableArrayWithAllocatorI21StackSlotAnalysisData13GrowableArrayIS0_EE4pushERKS0_.exit.i7: ; preds = %55, %50
  %65 = phi i32 [ %.pre.i.i.i9, %55 ], [ %51, %50 ]
  %66 = add nsw i32 %65, 1
  store i32 %66, ptr %0, align 8
  %67 = getelementptr inbounds i8, ptr %0, i64 8
  br label %_ZN21SimulatedOperandStack8push_rawE21StackSlotAnalysisData.exit6.sink.split

_ZN21SimulatedOperandStack8push_rawE21StackSlotAnalysisData.exit6.sink.split: ; preds = %_ZN26GrowableArrayWithAllocatorI21StackSlotAnalysisData13GrowableArrayIS0_EE4pushERKS0_.exit.i3, %_ZN26GrowableArrayWithAllocatorI21StackSlotAnalysisData13GrowableArrayIS0_EE4pushERKS0_.exit.i7
  %.sink16 = phi ptr [ %67, %_ZN26GrowableArrayWithAllocatorI21StackSlotAnalysisData13GrowableArrayIS0_EE4pushERKS0_.exit.i7 ], [ %30, %_ZN26GrowableArrayWithAllocatorI21StackSlotAnalysisData13GrowableArrayIS0_EE4pushERKS0_.exit.i3 ]
  %.sink = phi i32 [ %65, %_ZN26GrowableArrayWithAllocatorI21StackSlotAnalysisData13GrowableArrayIS0_EE4pushERKS0_.exit.i7 ], [ %47, %_ZN26GrowableArrayWithAllocatorI21StackSlotAnalysisData13GrowableArrayIS0_EE4pushERKS0_.exit.i3 ]
  %68 = load ptr, ptr %.sink16, align 8
  %69 = sext i32 %.sink to i64
  %70 = getelementptr inbounds %class.StackSlotAnalysisData, ptr %68, i64 %69
  store i32 %1, ptr %70, align 4
  br label %_ZN21SimulatedOperandStack8push_rawE21StackSlotAnalysisData.exit6

_ZN21SimulatedOperandStack8push_rawE21StackSlotAnalysisData.exit6: ; preds = %_ZN21SimulatedOperandStack8push_rawE21StackSlotAnalysisData.exit6.sink.split, %11, %49
  ret void
}